target datalayout = "e-m:e-p270:32:32-p271:32:32-p272:64:64-i64:64-i128:128-f80:128-n8:16:32:64-S128"
target triple = "x86_64-pc-linux-gnu"

@dummy_dispatch_table = internal constant [3 x { i32, [4 x i8], ptr }] [{ i32, [4 x i8], ptr } { i32 1027, [4 x i8] zeroinitializer, ptr @dummy_query }, { i32, [4 x i8], ptr } { i32 1024, [4 x i8] zeroinitializer, ptr @OSSL_LIB_CTX_free }, { i32, [4 x i8], ptr } zeroinitializer], align 16

; Function Attrs: nounwind uwtable
define internal i32 @dummy_provider_init(ptr noundef %0, ptr noundef %1, ptr noundef %2, ptr noundef %3) #0 {
  %5 = alloca i32, align 4
  %6 = alloca ptr, align 8
  %7 = alloca ptr, align 8
  %8 = alloca ptr, align 8
  %9 = alloca ptr, align 8
  %10 = alloca ptr, align 8
  %11 = alloca [32 x i8], align 16
  %12 = alloca i32, align 4
  store ptr %0, ptr %6, align 8, !tbaa !19
  store ptr %1, ptr %7, align 8, !tbaa !21
  store ptr %2, ptr %8, align 8, !tbaa !23
  store ptr %3, ptr %9, align 8, !tbaa !25
  call void @llvm.lifetime.start.p0(i64 8, ptr %10) #3
  %13 = load ptr, ptr %6, align 8, !tbaa !19
  %14 = load ptr, ptr %7, align 8, !tbaa !21
  %15 = call ptr @OSSL_LIB_CTX_new_child(ptr noundef %13, ptr noundef %14)
  store ptr %15, ptr %10, align 8, !tbaa !8
  call void @llvm.lifetime.start.p0(i64 32, ptr %11) #3
  %16 = load ptr, ptr %10, align 8, !tbaa !8
  %17 = load ptr, ptr %9, align 8, !tbaa !25
  store ptr %16, ptr %17, align 8, !tbaa !25
  %18 = load ptr, ptr %8, align 8, !tbaa !23
  store ptr @dummy_dispatch_table, ptr %18, align 8, !tbaa !21
  %19 = load ptr, ptr %10, align 8, !tbaa !8
  %20 = getelementptr inbounds [32 x i8], ptr %11, i64 0, i64 0
  %21 = call i32 @RAND_bytes_ex(ptr noundef %19, ptr noundef %20, i64 noundef 32, i32 noundef 0)
  %22 = icmp sle i32 %21, 0
  br i1 %22, label %23, label %24

23:                                               ; preds = %4
  store i32 0, ptr %5, align 4
  store i32 1, ptr %12, align 4
  br label %25

24:                                               ; preds = %4
  store i32 1, ptr %5, align 4
  store i32 1, ptr %12, align 4
  br label %25

25:                                               ; preds = %24, %23
  call void @llvm.lifetime.end.p0(i64 32, ptr %11) #3
  call void @llvm.lifetime.end.p0(i64 8, ptr %10) #3
  %26 = load i32, ptr %5, align 4
  ret i32 %26
}