; Function Attrs: nounwind uwtable
define internal range(i32 0, 2) i32 @dummy_provider_init(ptr noundef %0, ptr noundef %1, ptr noundef writeonly captures(none) initializes((0, 8)) %2, ptr noundef writeonly captures(none) initializes((0, 8)) %3) #0 {
  %5 = alloca [32 x i8], align 16
  %6 = tail call ptr @OSSL_LIB_CTX_new_child(ptr noundef %0, ptr noundef %1) #6
  call void @llvm.lifetime.start.p0(i64 32, ptr nonnull %5) #6
  store ptr %6, ptr %3, align 8, !tbaa !4
  store ptr @dummy_dispatch_table, ptr %2, align 8, !tbaa !8
  %7 = call i32 @RAND_bytes_ex(ptr noundef %6, ptr noundef nonnull %5, i64 noundef 32, i32 noundef 0) #6
  %8 = icmp sgt i32 %7, 0
  %. = zext i1 %8 to i32
  call void @llvm.lifetime.end.p0(i64 32, ptr nonnull %5) #6
  ret i32 %.
}